; Function Attrs: nounwind uwtable
define hidden i32 @lsarpc_dissect_struct_lsa_ServerRole(ptr noundef %0, i32 noundef %1, ptr noundef %2, ptr noundef %3, ptr noundef %4, ptr noundef %5, i32 noundef %6, i32 %7) local_unnamed_addr #0 {
  %9 = alloca i32, align 4
  %10 = getelementptr inbounds nuw i8, ptr %4, i64 28
  %11 = load i32, ptr %10, align 4
  %.not = icmp ne i32 %11, 0
  %12 = and i32 %1, 3
  %.not26 = icmp eq i32 %12, 0
  %or.cond = or i1 %.not26, %.not
  %13 = and i32 %1, -4
  %14 = add i32 %13, 4
  %.0 = select i1 %or.cond, i32 %1, i32 %14
  %.not27 = icmp eq ptr %3, null
  br i1 %.not27, label %19, label %15

15:                                               ; preds = %8
  %16 = tail call ptr @proto_tree_add_item(ptr noundef nonnull %3, i32 noundef %6, ptr noundef %0, i32 noundef %.0, i32 noundef -1, i32 noundef 0) #5
  %17 = load i32, ptr @ett_lsarpc_lsa_ServerRole, align 4
  %18 = tail call ptr @proto_item_add_subtree(ptr noundef %16, i32 noundef %17) #5
  br label %19

19:                                               ; preds = %15, %8
  %.024 = phi ptr [ %16, %15 ], [ null, %8 ]
  %.023 = phi ptr [ %18, %15 ], [ null, %8 ]
  %20 = load i32, ptr @hf_lsarpc_lsa_ServerRole_role, align 4
  call void @llvm.lifetime.start.p0(i64 4, ptr nonnull %9)
  store i32 0, ptr %9, align 4
  %21 = call i32 @dissect_ndr_uint32(ptr noundef %0, i32 noundef %.0, ptr noundef %2, ptr noundef %.023, ptr noundef nonnull %4, ptr noundef %5, i32 noundef %20, ptr noundef nonnull %9) #5
  call void @llvm.lifetime.end.p0(i64 4, ptr nonnull %9)
  %22 = sub i32 %21, %.0
  call void @proto_item_set_len(ptr noundef %.024, i32 noundef %22) #5
  %23 = getelementptr inbounds nuw i8, ptr %4, i64 72
  %24 = load ptr, ptr %23, align 8
  %25 = getelementptr inbounds nuw i8, ptr %24, i64 96
  %26 = load i32, ptr %25, align 8
  %27 = and i32 %26, 1
  %.not28 = icmp eq i32 %27, 0
  br i1 %.not28, label %34, label %28

28:                                               ; preds = %19
  %29 = load i32, ptr %10, align 4
  %.not29 = icmp ne i32 %29, 0
  %30 = and i32 %21, 3
  %.not30 = icmp eq i32 %30, 0
  %or.cond31 = or i1 %.not30, %.not29
  br i1 %or.cond31, label %34, label %31

31:                                               ; preds = %28
  %32 = and i32 %21, -4
  %33 = add i32 %32, 4
  br label %34

34:                                               ; preds = %28, %31, %19
  %.1 = phi i32 [ %21, %28 ], [ %33, %31 ], [ %21, %19 ]
  ret i32 %.1
}